; Function Attrs: mustprogress nofree norecurse nosync nounwind memory(read, argmem: readwrite, inaccessiblemem: none) uwtable
define hidden void @_ZNK3vas2ot12RgbHistogram32AccumulateRgbHistogramFromBgra32ERKN2cv3MatEPf(ptr noundef nonnull readonly align 8 captures(none) dereferenceable(20) %0, ptr noundef nonnull readonly align 8 captures(none) dereferenceable(96) %1, ptr noundef captures(none) %2) local_unnamed_addr #8 align 2 {
  %4 = getelementptr inbounds nuw i8, ptr %1, i64 8
  %5 = load i32, ptr %4, align 8, !tbaa !23
  %6 = icmp sgt i32 %5, 0
  br i1 %6, label %.lr.ph23, label %._crit_edge24

.lr.ph23:                                         ; preds = %3
  %7 = getelementptr inbounds nuw i8, ptr %1, i64 16
  %8 = load ptr, ptr %7, align 8, !tbaa !13
  %9 = getelementptr inbounds nuw i8, ptr %1, i64 72
  %10 = load ptr, ptr %9, align 8, !tbaa !24
  %11 = load i64, ptr %10, align 8, !tbaa !25
  %12 = getelementptr inbounds nuw i8, ptr %1, i64 12
  %13 = load i32, ptr %12, align 4, !tbaa !27
  %14 = icmp sgt i32 %13, 0
  %15 = getelementptr inbounds nuw i8, ptr %0, i64 8
  %16 = load i32, ptr %15, align 8
  %17 = getelementptr inbounds nuw i8, ptr %0, i64 12
  %18 = load i32, ptr %17, align 4
  br i1 %14, label %.lr.ph.us.preheader, label %._crit_edge24

.lr.ph.us.preheader:                              ; preds = %.lr.ph23
  %wide.trip.count30 = zext nneg i32 %5 to i64
  %wide.trip.count = zext nneg i32 %13 to i64
  br label %.lr.ph.us

.lr.ph.us:                                        ; preds = %.lr.ph.us.preheader, %._crit_edge.us
  %indvars.iv27 = phi i64 [ 0, %.lr.ph.us.preheader ], [ %indvars.iv.next28, %._crit_edge.us ]
  %19 = mul i64 %11, %indvars.iv27
  %20 = getelementptr inbounds nuw i8, ptr %8, i64 %19
  br label %21

21:                                               ; preds = %.lr.ph.us, %21
  %indvars.iv = phi i64 [ 0, %.lr.ph.us ], [ %indvars.iv.next, %21 ]
  %22 = getelementptr inbounds nuw %"class.cv::Vec.2", ptr %20, i64 %indvars.iv
  %23 = load i8, ptr %22, align 1, !tbaa !28
  %24 = zext i8 %23 to i32
  %25 = sdiv i32 %24, %16
  %26 = getelementptr inbounds nuw i8, ptr %22, i64 1
  %27 = load i8, ptr %26, align 1, !tbaa !28
  %28 = zext i8 %27 to i32
  %29 = sdiv i32 %28, %16
  %30 = getelementptr inbounds nuw i8, ptr %22, i64 2
  %31 = load i8, ptr %30, align 1, !tbaa !28
  %32 = zext i8 %31 to i32
  %33 = sdiv i32 %32, %16
  %34 = mul nsw i32 %18, %25
  %35 = add nsw i32 %34, %29
  %36 = mul nsw i32 %35, %18
  %37 = add nsw i32 %36, %33
  %38 = sext i32 %37 to i64
  %39 = getelementptr inbounds float, ptr %2, i64 %38
  %40 = load float, ptr %39, align 4, !tbaa !29
  %41 = fadd float %40, 1.000000e+00
  store float %41, ptr %39, align 4, !tbaa !29
  %indvars.iv.next = add nuw nsw i64 %indvars.iv, 1
  %exitcond.not = icmp eq i64 %indvars.iv.next, %wide.trip.count
  br i1 %exitcond.not, label %._crit_edge.us, label %21, !llvm.loop !34

._crit_edge.us:                                   ; preds = %21
  %indvars.iv.next28 = add nuw nsw i64 %indvars.iv27, 1
  %exitcond31.not = icmp eq i64 %indvars.iv.next28, %wide.trip.count30
  br i1 %exitcond31.not, label %._crit_edge24, label %.lr.ph.us, !llvm.loop !35

._crit_edge24:                                    ; preds = %._crit_edge.us, %.lr.ph23, %3
  ret void
}